target datalayout = "e-m:e-p270:32:32-p271:32:32-p272:64:64-i64:64-i128:128-f80:128-n8:16:32:64-S128"
target triple = "x86_64-pc-linux-gnu"

%struct.Pdr_Set_t_ = type { i64, i32, i32, i32, [0 x i32] }

; Function Attrs: nounwind uwtable
define i32 @Pdr_SetCompare(ptr noundef %0, ptr noundef %1) #0 {
  %3 = alloca i32, align 4
  %4 = alloca ptr, align 8
  %5 = alloca ptr, align 8
  %6 = alloca ptr, align 8
  %7 = alloca ptr, align 8
  %8 = alloca i32, align 4
  store ptr %0, ptr %4, align 8
  store ptr %1, ptr %5, align 8
  %9 = load ptr, ptr %4, align 8
  %10 = load ptr, ptr %9, align 8
  store ptr %10, ptr %6, align 8
  %11 = load ptr, ptr %5, align 8
  %12 = load ptr, ptr %11, align 8
  store ptr %12, ptr %7, align 8
  store i32 0, ptr %8, align 4
  br label %13

13:                                               ; preds = %58, %2
  %14 = load i32, ptr %8, align 4
  %15 = load ptr, ptr %6, align 8
  %16 = getelementptr inbounds %struct.Pdr_Set_t_, ptr %15, i32 0, i32 3
  %17 = load i32, ptr %16, align 8
  %18 = icmp slt i32 %14, %17
  br i1 %18, label %19, label %25

19:                                               ; preds = %13
  %20 = load i32, ptr %8, align 4
  %21 = load ptr, ptr %7, align 8
  %22 = getelementptr inbounds %struct.Pdr_Set_t_, ptr %21, i32 0, i32 3
  %23 = load i32, ptr %22, align 8
  %24 = icmp slt i32 %20, %23
  br label %25

25:                                               ; preds = %19, %13
  %26 = phi i1 [ false, %13 ], [ %24, %19 ]
  br i1 %26, label %27, label %61

27:                                               ; preds = %25
  %28 = load ptr, ptr %6, align 8
  %29 = getelementptr inbounds %struct.Pdr_Set_t_, ptr %28, i32 0, i32 4
  %30 = load i32, ptr %8, align 4
  %31 = sext i32 %30 to i64
  %32 = getelementptr inbounds [0 x i32], ptr %29, i64 0, i64 %31
  %33 = load i32, ptr %32, align 4
  %34 = load ptr, ptr %7, align 8
  %35 = getelementptr inbounds %struct.Pdr_Set_t_, ptr %34, i32 0, i32 4
  %36 = load i32, ptr %8, align 4
  %37 = sext i32 %36 to i64
  %38 = getelementptr inbounds [0 x i32], ptr %35, i64 0, i64 %37
  %39 = load i32, ptr %38, align 4
  %40 = icmp sgt i32 %33, %39
  br i1 %40, label %41, label %42

41:                                               ; preds = %27
  store i32 -1, ptr %3, align 4
  br label %88

42:                                               ; preds = %27
  %43 = load ptr, ptr %6, align 8
  %44 = getelementptr inbounds %struct.Pdr_Set_t_, ptr %43, i32 0, i32 4
  %45 = load i32, ptr %8, align 4
  %46 = sext i32 %45 to i64
  %47 = getelementptr inbounds [0 x i32], ptr %44, i64 0, i64 %46
  %48 = load i32, ptr %47, align 4
  %49 = load ptr, ptr %7, align 8
  %50 = getelementptr inbounds %struct.Pdr_Set_t_, ptr %49, i32 0, i32 4
  %51 = load i32, ptr %8, align 4
  %52 = sext i32 %51 to i64
  %53 = getelementptr inbounds [0 x i32], ptr %50, i64 0, i64 %52
  %54 = load i32, ptr %53, align 4
  %55 = icmp slt i32 %48, %54
  br i1 %55, label %56, label %57

56:                                               ; preds = %42
  store i32 1, ptr %3, align 4
  br label %88

57:                                               ; preds = %42
  br label %58

58:                                               ; preds = %57
  %59 = load i32, ptr %8, align 4
  %60 = add nsw i32 %59, 1
  store i32 %60, ptr %8, align 4
  br label %13, !llvm.loop !25

61:                                               ; preds = %25
  %62 = load i32, ptr %8, align 4
  %63 = load ptr, ptr %6, align 8
  %64 = getelementptr inbounds %struct.Pdr_Set_t_, ptr %63, i32 0, i32 3
  %65 = load i32, ptr %64, align 8
  %66 = icmp eq i32 %62, %65
  br i1 %66, label %67, label %74

67:                                               ; preds = %61
  %68 = load i32, ptr %8, align 4
  %69 = load ptr, ptr %7, align 8
  %70 = getelementptr inbounds %struct.Pdr_Set_t_, ptr %69, i32 0, i32 3
  %71 = load i32, ptr %70, align 8
  %72 = icmp slt i32 %68, %71
  br i1 %72, label %73, label %74

73:                                               ; preds = %67
  store i32 -1, ptr %3, align 4
  br label %88

74:                                               ; preds = %67, %61
  %75 = load i32, ptr %8, align 4
  %76 = load ptr, ptr %6, align 8
  %77 = getelementptr inbounds %struct.Pdr_Set_t_, ptr %76, i32 0, i32 3
  %78 = load i32, ptr %77, align 8
  %79 = icmp slt i32 %75, %78
  br i1 %79, label %80, label %87

80:                                               ; preds = %74
  %81 = load i32, ptr %8, align 4
  %82 = load ptr, ptr %7, align 8
  %83 = getelementptr inbounds %struct.Pdr_Set_t_, ptr %82, i32 0, i32 3
  %84 = load i32, ptr %83, align 8
  %85 = icmp eq i32 %81, %84
  br i1 %85, label %86, label %87

86:                                               ; preds = %80
  store i32 1, ptr %3, align 4
  br label %88

87:                                               ; preds = %80, %74
  store i32 0, ptr %3, align 4
  br label %88

88:                                               ; preds = %87, %86, %73, %56, %41
  %89 = load i32, ptr %3, align 4
  ret i32 %89
}