; Function Attrs: nofree norecurse nosync nounwind memory(read, inaccessiblemem: none) uwtable
define range(i32 -1, 2) i32 @Pdr_SetCompare(ptr noundef readonly captures(none) %0, ptr noundef readonly captures(none) %1) local_unnamed_addr #12 {
  %3 = load ptr, ptr %0, align 8
  %4 = load ptr, ptr %1, align 8
  %5 = getelementptr inbounds nuw i8, ptr %3, i64 16
  %6 = load i32, ptr %5, align 8
  %7 = icmp sgt i32 %6, 0
  br i1 %7, label %.lr.ph, label %.critedge

.lr.ph:                                           ; preds = %2
  %8 = getelementptr inbounds nuw i8, ptr %4, i64 16
  %9 = load i32, ptr %8, align 8
  %10 = getelementptr inbounds nuw i8, ptr %3, i64 20
  %11 = getelementptr inbounds nuw i8, ptr %4, i64 20
  %smax = tail call i32 @llvm.smax.i32(i32 %9, i32 0)
  %wide.trip.count = zext nneg i32 %smax to i64
  %wide.trip.count38 = zext nneg i32 %6 to i64
  br label %12

12:                                               ; preds = %.lr.ph, %21
  %indvars.iv = phi i64 [ 0, %.lr.ph ], [ %indvars.iv.next, %21 ]
  %exitcond.not = icmp eq i64 %indvars.iv, %wide.trip.count
  br i1 %exitcond.not, label %.critedge, label %13

13:                                               ; preds = %12
  %14 = getelementptr inbounds nuw [0 x i32], ptr %10, i64 0, i64 %indvars.iv
  %15 = load i32, ptr %14, align 4
  %16 = getelementptr inbounds nuw [0 x i32], ptr %11, i64 0, i64 %indvars.iv
  %17 = load i32, ptr %16, align 4
  %18 = icmp sgt i32 %15, %17
  br i1 %18, label %.loopexit, label %19

19:                                               ; preds = %13
  %20 = icmp slt i32 %15, %17
  br i1 %20, label %.loopexit, label %21

21:                                               ; preds = %19
  %indvars.iv.next = add nuw nsw i64 %indvars.iv, 1
  %exitcond39.not = icmp eq i64 %indvars.iv.next, %wide.trip.count38
  br i1 %exitcond39.not, label %.critedge.thread, label %12, !llvm.loop !21

.critedge:                                        ; preds = %12, %2
  %.0.lcssa = phi i32 [ 0, %2 ], [ %smax, %12 ]
  %22 = icmp eq i32 %.0.lcssa, %6
  br i1 %22, label %.critedge.thread, label %26

.critedge.thread:                                 ; preds = %21, %.critedge
  %.lcssa45 = phi i1 [ %7, %.critedge ], [ false, %21 ]
  %.0.lcssa43 = phi i32 [ %.0.lcssa, %.critedge ], [ %6, %21 ]
  %23 = getelementptr inbounds nuw i8, ptr %4, i64 16
  %24 = load i32, ptr %23, align 8
  %25 = icmp slt i32 %6, %24
  br i1 %25, label %.loopexit, label %26

26:                                               ; preds = %.critedge.thread, %.critedge
  %.lcssa44 = phi i1 [ %.lcssa45, %.critedge.thread ], [ %7, %.critedge ]
  %.0.lcssa42 = phi i32 [ %.0.lcssa43, %.critedge.thread ], [ %.0.lcssa, %.critedge ]
  br i1 %.lcssa44, label %27, label %31

27:                                               ; preds = %26
  %28 = getelementptr inbounds nuw i8, ptr %4, i64 16
  %29 = load i32, ptr %28, align 8
  %30 = icmp eq i32 %.0.lcssa42, %29
  br i1 %30, label %.loopexit, label %31

31:                                               ; preds = %27, %26
  br label %.loopexit

.loopexit:                                        ; preds = %19, %13, %27, %.critedge.thread, %31
  %.023 = phi i32 [ 0, %31 ], [ -1, %.critedge.thread ], [ 1, %27 ], [ 1, %19 ], [ -1, %13 ]
  ret i32 %.023
}